; Function Attrs: mustprogress uwtable
define void @_ZN6opencc8TextDict17NewFromSortedFileEP8_IO_FILE(ptr dead_on_unwind noalias nocapture writable writeonly sret(%"class.std::shared_ptr.0") align 8 %0, ptr noundef %1) local_unnamed_addr #3 align 2 personality ptr @__gxx_personality_v0 {
  %3 = alloca %"class.std::shared_ptr", align 8
  call fastcc void @_ZL20ParseLexiconFromFileP8_IO_FILE(ptr dead_on_unwind noalias nonnull writable align 8 %3, ptr noundef %1)
  %4 = invoke noalias noundef nonnull dereferenceable(40) ptr @_Znwm(i64 noundef 40) #22
          to label %5 unwind label %62

5:                                                ; preds = %2
  invoke void @_ZN6opencc8TextDictC1ERKSt10shared_ptrINS_7LexiconEE(ptr noundef nonnull align 8 dereferenceable(40) %4, ptr noundef nonnull align 8 dereferenceable(16) %3)
          to label %6 unwind label %64

6:                                                ; preds = %5
  store ptr %4, ptr %0, align 8
  %7 = getelementptr inbounds i8, ptr %0, i64 8
  store ptr null, ptr %7, align 8
  %8 = invoke noalias noundef nonnull dereferenceable(24) ptr @_Znwm(i64 noundef 24) #22
          to label %22 unwind label %9

9:                                                ; preds = %6
  %10 = landingpad { ptr, i32 }
          catch ptr null
  %11 = extractvalue { ptr, i32 } %10, 0
  %12 = call ptr @__cxa_begin_catch(ptr %11) #20
  %13 = load ptr, ptr %4, align 8
  %14 = getelementptr inbounds i8, ptr %13, i64 48
  %15 = load ptr, ptr %14, align 8
  call void %15(ptr noundef nonnull align 8 dereferenceable(40) %4) #20
  invoke void @__cxa_rethrow() #23
          to label %21 unwind label %16

16:                                               ; preds = %9
  %17 = landingpad { ptr, i32 }
          cleanup
  invoke void @__cxa_end_catch()
          to label %.body unwind label %18

18:                                               ; preds = %16
  %19 = landingpad { ptr, i32 }
          catch ptr null
  %20 = extractvalue { ptr, i32 } %19, 0
  call void @__clang_call_terminate(ptr %20) #24
  unreachable

21:                                               ; preds = %9
  unreachable

22:                                               ; preds = %6
  %23 = getelementptr inbounds i8, ptr %8, i64 8
  store i32 1, ptr %23, align 8
  %24 = getelementptr inbounds i8, ptr %8, i64 12
  store i32 1, ptr %24, align 4
  store ptr getelementptr inbounds inrange(-16, 40) ({ [7 x ptr] }, ptr @_ZTVSt15_Sp_counted_ptrIPN6opencc8TextDictELN9__gnu_cxx12_Lock_policyE2EE, i64 0, i32 0, i64 2), ptr %8, align 8
  %25 = getelementptr inbounds i8, ptr %8, i64 16
  store ptr %4, ptr %25, align 8
  store ptr %8, ptr %7, align 8
  %26 = getelementptr inbounds i8, ptr %3, i64 8
  %27 = load ptr, ptr %26, align 8
  %.not.i.i.i = icmp eq ptr %27, null
  br i1 %.not.i.i.i, label %_ZNSt10shared_ptrIN6opencc7LexiconEED2Ev.exit, label %28

28:                                               ; preds = %22
  %29 = getelementptr inbounds i8, ptr %27, i64 8
  %30 = load atomic i64, ptr %29 acquire, align 8
  %31 = icmp eq i64 %30, 4294967297
  %32 = trunc i64 %30 to i32
  br i1 %31, label %33, label %38

33:                                               ; preds = %28
  store i32 0, ptr %29, align 8
  %34 = getelementptr inbounds i8, ptr %27, i64 12
  store i32 0, ptr %34, align 4
  %35 = load ptr, ptr %27, align 8
  %36 = getelementptr inbounds i8, ptr %35, i64 16
  %37 = load ptr, ptr %36, align 8
  call void %37(ptr noundef nonnull align 8 dereferenceable(16) %27) #20
  br label %_ZNSt16_Sp_counted_baseILN9__gnu_cxx12_Lock_policyE2EE24_M_release_last_use_coldEv.exit.sink.split.i.i.i.i

38:                                               ; preds = %28
  %39 = load i8, ptr @__libc_single_threaded, align 1
  %.not.i.i.i.i = icmp eq i8 %39, 0
  br i1 %.not.i.i.i.i, label %42, label %40

40:                                               ; preds = %38
  %41 = add nsw i32 %32, -1
  store i32 %41, ptr %29, align 4
  br label %44

42:                                               ; preds = %38
  %43 = atomicrmw volatile add ptr %29, i32 -1 acq_rel, align 4
  br label %44

44:                                               ; preds = %42, %40
  %.0.i.i.i.i = phi i32 [ %32, %40 ], [ %43, %42 ]
  %45 = icmp eq i32 %.0.i.i.i.i, 1
  br i1 %45, label %46, label %_ZNSt10shared_ptrIN6opencc7LexiconEED2Ev.exit

46:                                               ; preds = %44
  %47 = load ptr, ptr %27, align 8
  %48 = getelementptr inbounds i8, ptr %47, i64 16
  %49 = load ptr, ptr %48, align 8
  call void %49(ptr noundef nonnull align 8 dereferenceable(16) %27) #20
  %50 = getelementptr inbounds i8, ptr %27, i64 12
  %51 = load i8, ptr @__libc_single_threaded, align 1
  %.not.i.i.i.i.i.i = icmp eq i8 %51, 0
  br i1 %.not.i.i.i.i.i.i, label %55, label %52

52:                                               ; preds = %46
  %53 = load i32, ptr %50, align 4
  %54 = add nsw i32 %53, -1
  store i32 %54, ptr %50, align 4
  br label %57

55:                                               ; preds = %46
  %56 = atomicrmw volatile add ptr %50, i32 -1 acq_rel, align 4
  br label %57

57:                                               ; preds = %55, %52
  %.0.i.i.i.i.i.i = phi i32 [ %53, %52 ], [ %56, %55 ]
  %58 = icmp eq i32 %.0.i.i.i.i.i.i, 1
  br i1 %58, label %_ZNSt16_Sp_counted_baseILN9__gnu_cxx12_Lock_policyE2EE24_M_release_last_use_coldEv.exit.sink.split.i.i.i.i, label %_ZNSt10shared_ptrIN6opencc7LexiconEED2Ev.exit

_ZNSt16_Sp_counted_baseILN9__gnu_cxx12_Lock_policyE2EE24_M_release_last_use_coldEv.exit.sink.split.i.i.i.i: ; preds = %57, %33
  %59 = load ptr, ptr %27, align 8
  %60 = getelementptr inbounds i8, ptr %59, i64 24
  %61 = load ptr, ptr %60, align 8
  call void %61(ptr noundef nonnull align 8 dereferenceable(16) %27) #20
  br label %_ZNSt10shared_ptrIN6opencc7LexiconEED2Ev.exit

_ZNSt10shared_ptrIN6opencc7LexiconEED2Ev.exit:    ; preds = %22, %44, %57, %_ZNSt16_Sp_counted_baseILN9__gnu_cxx12_Lock_policyE2EE24_M_release_last_use_coldEv.exit.sink.split.i.i.i.i
  ret void

62:                                               ; preds = %2
  %63 = landingpad { ptr, i32 }
          cleanup
  br label %.body

64:                                               ; preds = %5
  %65 = landingpad { ptr, i32 }
          cleanup
  call void @_ZdlPv(ptr noundef nonnull %4) #21
  br label %.body

.body:                                            ; preds = %62, %16, %64
  %.pn = phi { ptr, i32 } [ %65, %64 ], [ %63, %62 ], [ %17, %16 ]
  call void @_ZNSt10shared_ptrIN6opencc7LexiconEED2Ev(ptr noundef nonnull align 8 dereferenceable(16) %3) #20
  resume { ptr, i32 } %.pn
}